target datalayout = "e-m:e-p270:32:32-p271:32:32-p272:64:64-i64:64-i128:128-f80:128-n8:16:32:64-S128"
target triple = "x86_64-unknown-linux-gnu"

%struct.redisServer = type { i32, i64, ptr, ptr, ptr, i32, i32, i32, i32, i32, ptr, ptr, ptr, ptr, ptr, ptr, i32, i32, i64, i32, i32, i32, i32, ptr, i32, i32, [41 x i8], i32, i64, i32, i32, i32, ptr, ptr, i32, i32, i64, ptr, ptr, ptr, ptr, [2 x i32], i32, i32, i32, i32, i32, [16 x ptr], i32, ptr, ptr, i32, [8 x %struct.connListener], i32, %struct.connListener, ptr, ptr, ptr, ptr, ptr, ptr, ptr, ptr, ptr, ptr, i32, ptr, i32, ptr, [3 x %struct.pause_event], [256 x i8], ptr, i64, i32, i32, i32, i32, i64, i32, i32, i32, i32, i32, i64, i64, i64, i64, i64, i64, i64, i64, i64, double, i64, i64, i64, i64, i64, i64, i64, i64, i64, i64, i64, i64, i64, i64, i64, i64, i64, i64, i64, i64, double, i64, i64, i64, i64, i64, ptr, i64, i64, i64, %struct.malloc_stats, i64, i64, i64, i64, i64, i64, i64, i64, i64, i64, i64, i64, double, [4 x i64], i64, i64, i64, i64, i64, i64, i64, i64, i64, i64, [7 x %struct.anon], i64, i64, i64, i64, i64, i64, [4 x %struct.durationStats], i32, i32, i32, i32, i32, i32, i32, i32, i32, i32, i64, i32, i32, i32, i32, i64, i64, i32, i32, i32, i32, i32, ptr, [3 x %struct.clientBufferLimitsConfig], i32, i32, ptr, i32, i32, i32, i32, ptr, ptr, i32, i32, i64, i64, i64, i64, i64, i32, i32, ptr, i32, i32, i64, i64, i64, i64, i64, i32, i32, i64, i32, i32, i32, i32, i32, i32, i32, i32, ptr, i32, i64, i64, i64, i64, ptr, i32, ptr, i32, i32, i32, i64, i64, i64, i64, i32, i32, i32, i32, i32, i32, ptr, i32, i32, ptr, i32, i32, i32, [2 x i32], i32, %struct.redisOpArray, i32, ptr, i32, ptr, i32, i32, i32, i32, i32, i32, i32, [41 x i8], [41 x i8], i64, i64, i64, i64, i32, i32, ptr, i64, i64, i64, i32, i32, i32, i32, i32, i32, i32, i64, ptr, ptr, ptr, ptr, i32, i32, ptr, ptr, i32, i32, i64, i64, i64, ptr, i32, ptr, i64, i32, i32, i32, i64, i32, i32, i32, i32, ptr, i32, i32, [41 x i8], i64, i32, ptr, i32, i32, i64, i64, i32, i32, i32, i32, i32, i64, [3 x i32], i32, i32, i32, [9 x i32], ptr, ptr, i32, i64, ptr, ptr, i32, i32, i32, i32, i64, i64, i64, i64, i64, i64, i64, i64, i64, i64, i32, i32, i64, i64, i32, i64, i64, i64, i64, i64, ptr, ptr, i32, ptr, i32, i32, i32, i64, i64, ptr, ptr, i32, i32, i32, i32, i32, ptr, ptr, ptr, i32, i32, i32, i32, i32, i32, i32, i64, i32, i64, i32, i32, i32, i32, i32, i32, i32, i64, ptr, ptr, i64, ptr, i32, %struct.aclInfo, i32, i64, i32, i32, i32, %struct.redisTLSContextConfig, ptr, ptr, ptr, ptr, ptr, i64, i32, ptr, i32, i32, i32, i64, i32, ptr }
%struct.connListener = type { [16 x i32], i32, ptr, i32, i32, ptr, ptr }
%struct.pause_event = type { i32, i64 }
%struct.malloc_stats = type { i64, i64, i64, i64, i64 }
%struct.anon = type { i64, i64, [16 x i64], i32 }
%struct.durationStats = type { i64, i64, i64 }
%struct.clientBufferLimitsConfig = type { i64, i64, i64 }
%struct.redisOpArray = type { ptr, i32, i32 }
%struct.aclInfo = type { i64, i64, i64, i64 }
%struct.redisTLSContextConfig = type { ptr, ptr, ptr, ptr, ptr, ptr, ptr, ptr, ptr, ptr, ptr, ptr, i32, i32, i32, i32 }
%struct.rlimit = type { i64, i64 }

@server = dso_local global %struct.redisServer zeroinitializer, align 8
@.str.134 = private unnamed_addr constant [117 x i8] c"Unable to obtain the current NOFILE limit (%s), assuming 1024 and setting the max clients configuration accordingly.\00", align 1
@.str.135 = private unnamed_addr constant [136 x i8] c"Your current 'ulimit -n' of %llu is not enough for the server to start. Please increase your open file limit to at least %llu. Exiting.\00", align 1
@.str.136 = private unnamed_addr constant [77 x i8] c"You requested maxclients of %d requiring at least %llu max file descriptors.\00", align 1
@.str.137 = private unnamed_addr constant [69 x i8] c"Server can't set maximum open files to %llu because of OS error: %s.\00", align 1
@.str.138 = private unnamed_addr constant [152 x i8] c"Current maximum open files is %llu. maxclients has been reduced to %d to compensate for low ulimit. If you need higher maxclients increase 'ulimit -n'.\00", align 1
@.str.139 = private unnamed_addr constant [80 x i8] c"Increased maximum number of open files to %llu (it was originally set to %llu).\00", align 1

; Function Attrs: nounwind uwtable
define dso_local void @adjustOpenFilesLimit() #0 {
entry:
  %maxfiles = alloca i64, align 8
  %limit = alloca %struct.rlimit, align 8
  %oldlimit = alloca i64, align 8
  %bestlimit = alloca i64, align 8
  %setrlimit_error = alloca i32, align 4
  %decr_step = alloca i64, align 8
  %old_maxclients = alloca i32, align 4
  %0 = load i32, ptr getelementptr inbounds (%struct.redisServer, ptr @server, i32 0, i32 313), align 4
  %add = add i32 %0, 32
  %conv = zext i32 %add to i64
  store i64 %conv, ptr %maxfiles, align 8
  %call = call i32 @getrlimit64(i32 noundef 7, ptr noundef %limit) #13
  %cmp = icmp eq i32 %call, -1
  br i1 %cmp, label %if.then, label %if.else

if.then:                                          ; preds = %entry
  br label %do.body

do.body:                                          ; preds = %if.then
  %1 = load i32, ptr getelementptr inbounds (%struct.redisServer, ptr @server, i32 0, i32 156), align 8
  %cmp2 = icmp slt i32 3, %1
  br i1 %cmp2, label %if.then4, label %if.end

if.then4:                                         ; preds = %do.body
  br label %do.end

if.end:                                           ; preds = %do.body
  %call5 = call ptr @__errno_location() #17
  %2 = load i32, ptr %call5, align 4
  %call6 = call ptr @strerror(i32 noundef %2) #13
  call void (i32, ptr, ...) @_serverLog(i32 noundef 3, ptr noundef @.str.134, ptr noundef %call6)
  br label %do.end

do.end:                                           ; preds = %if.end, %if.then4
  store i32 992, ptr getelementptr inbounds (%struct.redisServer, ptr @server, i32 0, i32 313), align 4
  br label %if.end70

if.else:                                          ; preds = %entry
  %rlim_cur = getelementptr inbounds %struct.rlimit, ptr %limit, i32 0, i32 0
  %3 = load i64, ptr %rlim_cur, align 8
  store i64 %3, ptr %oldlimit, align 8
  %4 = load i64, ptr %oldlimit, align 8
  %5 = load i64, ptr %maxfiles, align 8
  %cmp7 = icmp ult i64 %4, %5
  br i1 %cmp7, label %if.then9, label %if.end69

if.then9:                                         ; preds = %if.else
  store i32 0, ptr %setrlimit_error, align 4
  %6 = load i64, ptr %maxfiles, align 8
  store i64 %6, ptr %bestlimit, align 8
  br label %while.cond

while.cond:                                       ; preds = %if.end22, %if.then9
  %7 = load i64, ptr %bestlimit, align 8
  %8 = load i64, ptr %oldlimit, align 8
  %cmp10 = icmp ugt i64 %7, %8
  br i1 %cmp10, label %while.body, label %while.end

while.body:                                       ; preds = %while.cond
  store i64 16, ptr %decr_step, align 8
  %9 = load i64, ptr %bestlimit, align 8
  %rlim_cur12 = getelementptr inbounds %struct.rlimit, ptr %limit, i32 0, i32 0
  store i64 %9, ptr %rlim_cur12, align 8
  %10 = load i64, ptr %bestlimit, align 8
  %rlim_max = getelementptr inbounds %struct.rlimit, ptr %limit, i32 0, i32 1
  store i64 %10, ptr %rlim_max, align 8
  %call13 = call i32 @setrlimit64(i32 noundef 7, ptr noundef %limit) #13
  %cmp14 = icmp ne i32 %call13, -1
  br i1 %cmp14, label %if.then16, label %if.end17

if.then16:                                        ; preds = %while.body
  br label %while.end

if.end17:                                         ; preds = %while.body
  %call18 = call ptr @__errno_location() #17
  %11 = load i32, ptr %call18, align 4
  store i32 %11, ptr %setrlimit_error, align 4
  %12 = load i64, ptr %bestlimit, align 8
  %13 = load i64, ptr %decr_step, align 8
  %cmp19 = icmp ult i64 %12, %13
  br i1 %cmp19, label %if.then21, label %if.end22

if.then21:                                        ; preds = %if.end17
  %14 = load i64, ptr %oldlimit, align 8
  store i64 %14, ptr %bestlimit, align 8
  br label %while.end

if.end22:                                         ; preds = %if.end17
  %15 = load i64, ptr %decr_step, align 8
  %16 = load i64, ptr %bestlimit, align 8
  %sub = sub i64 %16, %15
  store i64 %sub, ptr %bestlimit, align 8
  br label %while.cond, !llvm.loop !28

while.end:                                        ; preds = %if.then21, %if.then16, %while.cond
  %17 = load i64, ptr %bestlimit, align 8
  %18 = load i64, ptr %oldlimit, align 8
  %cmp23 = icmp ult i64 %17, %18
  br i1 %cmp23, label %if.then25, label %if.end26

if.then25:                                        ; preds = %while.end
  %19 = load i64, ptr %oldlimit, align 8
  store i64 %19, ptr %bestlimit, align 8
  br label %if.end26

if.end26:                                         ; preds = %if.then25, %while.end
  %20 = load i64, ptr %bestlimit, align 8
  %21 = load i64, ptr %maxfiles, align 8
  %cmp27 = icmp ult i64 %20, %21
  br i1 %cmp27, label %if.then29, label %if.else61

if.then29:                                        ; preds = %if.end26
  %22 = load i32, ptr getelementptr inbounds (%struct.redisServer, ptr @server, i32 0, i32 313), align 4
  store i32 %22, ptr %old_maxclients, align 4
  %23 = load i64, ptr %bestlimit, align 8
  %sub30 = sub i64 %23, 32
  %conv31 = trunc i64 %sub30 to i32
  store i32 %conv31, ptr getelementptr inbounds (%struct.redisServer, ptr @server, i32 0, i32 313), align 4
  %24 = load i64, ptr %bestlimit, align 8
  %cmp32 = icmp ule i64 %24, 32
  br i1 %cmp32, label %if.then34, label %if.end41

if.then34:                                        ; preds = %if.then29
  br label %do.body35

do.body35:                                        ; preds = %if.then34
  %25 = load i32, ptr getelementptr inbounds (%struct.redisServer, ptr @server, i32 0, i32 156), align 8
  %cmp36 = icmp slt i32 3, %25
  br i1 %cmp36, label %if.then38, label %if.end39

if.then38:                                        ; preds = %do.body35
  br label %do.end40

if.end39:                                         ; preds = %do.body35
  %26 = load i64, ptr %oldlimit, align 8
  %27 = load i64, ptr %maxfiles, align 8
  call void (i32, ptr, ...) @_serverLog(i32 noundef 3, ptr noundef @.str.135, i64 noundef %26, i64 noundef %27)
  br label %do.end40

do.end40:                                         ; preds = %if.end39, %if.then38
  call void @exit(i32 noundef 1) #16
  unreachable

if.end41:                                         ; preds = %if.then29
  br label %do.body42

do.body42:                                        ; preds = %if.end41
  %28 = load i32, ptr getelementptr inbounds (%struct.redisServer, ptr @server, i32 0, i32 156), align 8
  %cmp43 = icmp slt i32 3, %28
  br i1 %cmp43, label %if.then45, label %if.end46

if.then45:                                        ; preds = %do.body42
  br label %do.end47

if.end46:                                         ; preds = %do.body42
  %29 = load i32, ptr %old_maxclients, align 4
  %30 = load i64, ptr %maxfiles, align 8
  call void (i32, ptr, ...) @_serverLog(i32 noundef 3, ptr noundef @.str.136, i32 noundef %29, i64 noundef %30)
  br label %do.end47

do.end47:                                         ; preds = %if.end46, %if.then45
  br label %do.body48

do.body48:                                        ; preds = %do.end47
  %31 = load i32, ptr getelementptr inbounds (%struct.redisServer, ptr @server, i32 0, i32 156), align 8
  %cmp49 = icmp slt i32 3, %31
  br i1 %cmp49, label %if.then51, label %if.end52

if.then51:                                        ; preds = %do.body48
  br label %do.end54

if.end52:                                         ; preds = %do.body48
  %32 = load i64, ptr %maxfiles, align 8
  %33 = load i32, ptr %setrlimit_error, align 4
  %call53 = call ptr @strerror(i32 noundef %33) #13
  call void (i32, ptr, ...) @_serverLog(i32 noundef 3, ptr noundef @.str.137, i64 noundef %32, ptr noundef %call53)
  br label %do.end54

do.end54:                                         ; preds = %if.end52, %if.then51
  br label %do.body55

do.body55:                                        ; preds = %do.end54
  %34 = load i32, ptr getelementptr inbounds (%struct.redisServer, ptr @server, i32 0, i32 156), align 8
  %cmp56 = icmp slt i32 3, %34
  br i1 %cmp56, label %if.then58, label %if.end59

if.then58:                                        ; preds = %do.body55
  br label %do.end60

if.end59:                                         ; preds = %do.body55
  %35 = load i64, ptr %bestlimit, align 8
  %36 = load i32, ptr getelementptr inbounds (%struct.redisServer, ptr @server, i32 0, i32 313), align 4
  call void (i32, ptr, ...) @_serverLog(i32 noundef 3, ptr noundef @.str.138, i64 noundef %35, i32 noundef %36)
  br label %do.end60

do.end60:                                         ; preds = %if.end59, %if.then58
  br label %if.end68

if.else61:                                        ; preds = %if.end26
  br label %do.body62

do.body62:                                        ; preds = %if.else61
  %37 = load i32, ptr getelementptr inbounds (%struct.redisServer, ptr @server, i32 0, i32 156), align 8
  %cmp63 = icmp slt i32 2, %37
  br i1 %cmp63, label %if.then65, label %if.end66

if.then65:                                        ; preds = %do.body62
  br label %do.end67

if.end66:                                         ; preds = %do.body62
  %38 = load i64, ptr %maxfiles, align 8
  %39 = load i64, ptr %oldlimit, align 8
  call void (i32, ptr, ...) @_serverLog(i32 noundef 2, ptr noundef @.str.139, i64 noundef %38, i64 noundef %39)
  br label %do.end67

do.end67:                                         ; preds = %if.end66, %if.then65
  br label %if.end68

if.end68:                                         ; preds = %do.end67, %do.end60
  br label %if.end69

if.end69:                                         ; preds = %if.end68, %if.else
  br label %if.end70

if.end70:                                         ; preds = %if.end69, %do.end
  ret void
}