; Function Attrs: nounwind uwtable
define dso_local void @adjustOpenFilesLimit() local_unnamed_addr #0 {
entry:
  %limit = alloca %struct.rlimit, align 8
  %0 = load i32, ptr getelementptr inbounds (%struct.redisServer, ptr @server, i64 0, i32 313), align 4
  %add = add i32 %0, 32
  %conv = zext i32 %add to i64
  %call = call i32 @getrlimit64(i32 noundef 7, ptr noundef nonnull %limit) #38
  %cmp = icmp eq i32 %call, -1
  br i1 %cmp, label %do.body, label %if.else

do.body:                                          ; preds = %entry
  %1 = load i32, ptr getelementptr inbounds (%struct.redisServer, ptr @server, i64 0, i32 156), align 8
  %cmp2 = icmp sgt i32 %1, 3
  br i1 %cmp2, label %do.end, label %if.end

if.end:                                           ; preds = %do.body
  %call5 = tail call ptr @__errno_location() #41
  %2 = load i32, ptr %call5, align 4
  %call6 = call ptr @strerror(i32 noundef %2) #38
  call void (i32, ptr, ...) @_serverLog(i32 noundef 3, ptr noundef nonnull @.str.134, ptr noundef %call6)
  br label %do.end

do.end:                                           ; preds = %do.body, %if.end
  store i32 992, ptr getelementptr inbounds (%struct.redisServer, ptr @server, i64 0, i32 313), align 4
  br label %if.end70

if.else:                                          ; preds = %entry
  %3 = load i64, ptr %limit, align 8
  %cmp7 = icmp ult i64 %3, %conv
  br i1 %cmp7, label %while.cond.preheader, label %if.end70

while.cond.preheader:                             ; preds = %if.else
  %rlim_max = getelementptr inbounds i8, ptr %limit, i64 8
  store i64 %conv, ptr %limit, align 8
  store i64 %conv, ptr %rlim_max, align 8
  %call1328 = call i32 @setrlimit64(i32 noundef 7, ptr noundef nonnull %limit) #38
  %cmp14.not29 = icmp eq i32 %call1328, -1
  br i1 %cmp14.not29, label %if.end17.preheader, label %while.end

if.end17.preheader:                               ; preds = %while.cond.preheader
  %call18 = tail call ptr @__errno_location() #41
  br label %if.end17

while.body:                                       ; preds = %if.end22
  store i64 %sub, ptr %limit, align 8
  store i64 %sub, ptr %rlim_max, align 8
  %call13 = call i32 @setrlimit64(i32 noundef 7, ptr noundef nonnull %limit) #38
  %cmp14.not = icmp eq i32 %call13, -1
  br i1 %cmp14.not, label %if.end17, label %while.end, !llvm.loop !28

if.end17:                                         ; preds = %if.end17.preheader, %while.body
  %bestlimit.02730 = phi i64 [ %sub, %while.body ], [ %conv, %if.end17.preheader ]
  %4 = load i32, ptr %call18, align 4
  %cmp19 = icmp ult i64 %bestlimit.02730, 16
  br i1 %cmp19, label %while.end, label %if.end22

if.end22:                                         ; preds = %if.end17
  %sub = add nsw i64 %bestlimit.02730, -16
  %cmp10 = icmp ugt i64 %sub, %3
  br i1 %cmp10, label %while.body, label %while.end, !llvm.loop !28

while.end:                                        ; preds = %if.end22, %while.body, %if.end17, %while.cond.preheader
  %setrlimit_error.1 = phi i32 [ 0, %while.cond.preheader ], [ %4, %if.end17 ], [ %4, %while.body ], [ %4, %if.end22 ]
  %bestlimit.1 = phi i64 [ %conv, %while.cond.preheader ], [ %sub, %if.end22 ], [ %sub, %while.body ], [ %3, %if.end17 ]
  %spec.select = call i64 @llvm.umax.i64(i64 %bestlimit.1, i64 %3)
  %cmp27 = icmp ult i64 %spec.select, %conv
  br i1 %cmp27, label %if.then29, label %do.body62

if.then29:                                        ; preds = %while.end
  %5 = load i32, ptr getelementptr inbounds (%struct.redisServer, ptr @server, i64 0, i32 313), align 4
  %6 = trunc i64 %spec.select to i32
  %conv31 = add i32 %6, -32
  store i32 %conv31, ptr getelementptr inbounds (%struct.redisServer, ptr @server, i64 0, i32 313), align 4
  %cmp32 = icmp ult i64 %spec.select, 33
  %7 = load i32, ptr getelementptr inbounds (%struct.redisServer, ptr @server, i64 0, i32 156), align 8
  %cmp36 = icmp sgt i32 %7, 3
  br i1 %cmp32, label %do.body35, label %do.body42

do.body35:                                        ; preds = %if.then29
  br i1 %cmp36, label %do.end40, label %if.end39

if.end39:                                         ; preds = %do.body35
  call void (i32, ptr, ...) @_serverLog(i32 noundef 3, ptr noundef nonnull @.str.135, i64 noundef %3, i64 noundef %conv)
  br label %do.end40

do.end40:                                         ; preds = %do.body35, %if.end39
  call void @exit(i32 noundef 1) #40
  unreachable

do.body42:                                        ; preds = %if.then29
  br i1 %cmp36, label %if.end70, label %do.body48

do.body48:                                        ; preds = %do.body42
  call void (i32, ptr, ...) @_serverLog(i32 noundef 3, ptr noundef nonnull @.str.136, i32 noundef %5, i64 noundef %conv)
  %.pr = load i32, ptr getelementptr inbounds (%struct.redisServer, ptr @server, i64 0, i32 156), align 8
  %cmp49 = icmp sgt i32 %.pr, 3
  br i1 %cmp49, label %if.end70, label %do.body55

do.body55:                                        ; preds = %do.body48
  %call53 = call ptr @strerror(i32 noundef %setrlimit_error.1) #38
  call void (i32, ptr, ...) @_serverLog(i32 noundef 3, ptr noundef nonnull @.str.137, i64 noundef %conv, ptr noundef %call53)
  %.pr24 = load i32, ptr getelementptr inbounds (%struct.redisServer, ptr @server, i64 0, i32 156), align 8
  %cmp56 = icmp sgt i32 %.pr24, 3
  br i1 %cmp56, label %if.end70, label %if.end59

if.end59:                                         ; preds = %do.body55
  %8 = load i32, ptr getelementptr inbounds (%struct.redisServer, ptr @server, i64 0, i32 313), align 4
  call void (i32, ptr, ...) @_serverLog(i32 noundef 3, ptr noundef nonnull @.str.138, i64 noundef %spec.select, i32 noundef %8)
  br label %if.end70

do.body62:                                        ; preds = %while.end
  %9 = load i32, ptr getelementptr inbounds (%struct.redisServer, ptr @server, i64 0, i32 156), align 8
  %cmp63 = icmp sgt i32 %9, 2
  br i1 %cmp63, label %if.end70, label %if.end66

if.end66:                                         ; preds = %do.body62
  call void (i32, ptr, ...) @_serverLog(i32 noundef 2, ptr noundef nonnull @.str.139, i64 noundef %conv, i64 noundef %3)
  br label %if.end70

if.end70:                                         ; preds = %do.body42, %do.body48, %if.else, %if.end66, %do.body62, %if.end59, %do.body55, %do.end
  ret void
}